; ModuleID = '15/1928.c'
source_filename = "15/1928.c"
target datalayout = "e-m:e-p270:32:32-p271:32:32-p272:64:64-i64:64-f80:128-n8:16:32:64-S128"
target triple = "x86_64-pc-linux-gnu"

@.str = private unnamed_addr constant [3 x i8] c"%d\00", align 1

; Function Attrs: noinline nounwind uwtable
define dso_local void @main() #0 {
  %1 = alloca i32, align 4
  %2 = alloca i32**, align 8
  %3 = alloca i32, align 4
  %4 = alloca i32, align 4
  %5 = alloca i32, align 4
  %6 = alloca i32, align 4
  %7 = alloca i32, align 4
  %8 = alloca i32, align 4
  store i32 1000, i32* %5, align 4
  store i32 1000, i32* %6, align 4
  store i32 0, i32* %7, align 4
  store i32 0, i32* %8, align 4
  %9 = call i32 (i8*, ...) @__isoc99_scanf(i8* getelementptr inbounds ([3 x i8], [3 x i8]* @.str, i64 0, i64 0), i32* %1)
  %10 = load i32, i32* %1, align 4
  %11 = sext i32 %10 to i64
  %12 = mul i64 %11, 8
  %13 = call noalias i8* @malloc(i64 %12) #3
  %14 = bitcast i8* %13 to i32**
  store i32** %14, i32*** %2, align 8
  store i32 0, i32* %3, align 4
  br label %15

15:                                               ; preds = %91, %0
  %16 = load i32, i32* %3, align 4
  %17 = load i32, i32* %1, align 4
  %18 = icmp slt i32 %16, %17
  br i1 %18, label %19, label %94

19:                                               ; preds = %15
  %20 = load i32, i32* %1, align 4
  %21 = sext i32 %20 to i64
  %22 = mul i64 %21, 4
  %23 = call noalias i8* @malloc(i64 %22) #3
  %24 = bitcast i8* %23 to i32*
  %25 = load i32**, i32*** %2, align 8
  %26 = load i32, i32* %3, align 4
  %27 = sext i32 %26 to i64
  %28 = getelementptr inbounds i32*, i32** %25, i64 %27
  store i32* %24, i32** %28, align 8
  store i32 0, i32* %4, align 4
  br label %29

29:                                               ; preds = %87, %19
  %30 = load i32, i32* %4, align 4
  %31 = load i32, i32* %1, align 4
  %32 = icmp slt i32 %30, %31
  br i1 %32, label %33, label %90

33:                                               ; preds = %29
  %34 = load i32**, i32*** %2, align 8
  %35 = load i32, i32* %3, align 4
  %36 = sext i32 %35 to i64
  %37 = getelementptr inbounds i32*, i32** %34, i64 %36
  %38 = load i32*, i32** %37, align 8
  %39 = load i32, i32* %4, align 4
  %40 = sext i32 %39 to i64
  %41 = getelementptr inbounds i32, i32* %38, i64 %40
  %42 = call i32 (i8*, ...) @__isoc99_scanf(i8* getelementptr inbounds ([3 x i8], [3 x i8]* @.str, i64 0, i64 0), i32* %41)
  %43 = load i32**, i32*** %2, align 8
  %44 = load i32, i32* %3, align 4
  %45 = sext i32 %44 to i64
  %46 = getelementptr inbounds i32*, i32** %43, i64 %45
  %47 = load i32*, i32** %46, align 8
  %48 = load i32, i32* %4, align 4
  %49 = sext i32 %48 to i64
  %50 = getelementptr inbounds i32, i32* %47, i64 %49
  %51 = load i32, i32* %50, align 4
  %52 = icmp eq i32 %51, 0
  br i1 %52, label %53, label %64

53:                                               ; preds = %33
  %54 = load i32, i32* %3, align 4
  %55 = load i32, i32* %5, align 4
  %56 = icmp sle i32 %54, %55
  br i1 %56, label %57, label %64

57:                                               ; preds = %53
  %58 = load i32, i32* %4, align 4
  %59 = load i32, i32* %6, align 4
  %60 = icmp sle i32 %58, %59
  br i1 %60, label %61, label %64

61:                                               ; preds = %57
  %62 = load i32, i32* %3, align 4
  store i32 %62, i32* %5, align 4
  %63 = load i32, i32* %4, align 4
  store i32 %63, i32* %6, align 4
  br label %64

64:                                               ; preds = %61, %57, %53, %33
  %65 = load i32**, i32*** %2, align 8
  %66 = load i32, i32* %3, align 4
  %67 = sext i32 %66 to i64
  %68 = getelementptr inbounds i32*, i32** %65, i64 %67
  %69 = load i32*, i32** %68, align 8
  %70 = load i32, i32* %4, align 4
  %71 = sext i32 %70 to i64
  %72 = getelementptr inbounds i32, i32* %69, i64 %71
  %73 = load i32, i32* %72, align 4
  %74 = icmp eq i32 %73, 0
  br i1 %74, label %75, label %86

75:                                               ; preds = %64
  %76 = load i32, i32* %3, align 4
  %77 = load i32, i32* %7, align 4
  %78 = icmp sge i32 %76, %77
  br i1 %78, label %79, label %86

79:                                               ; preds = %75
  %80 = load i32, i32* %4, align 4
  %81 = load i32, i32* %8, align 4
  %82 = icmp sge i32 %80, %81
  br i1 %82, label %83, label %86

83:                                               ; preds = %79
  %84 = load i32, i32* %3, align 4
  store i32 %84, i32* %7, align 4
  %85 = load i32, i32* %4, align 4
  store i32 %85, i32* %8, align 4
  br label %86

86:                                               ; preds = %83, %79, %75, %64
  br label %87

87:                                               ; preds = %86
  %88 = load i32, i32* %4, align 4
  %89 = add nsw i32 %88, 1
  store i32 %89, i32* %4, align 4
  br label %29

90:                                               ; preds = %29
  br label %91

91:                                               ; preds = %90
  %92 = load i32, i32* %3, align 4
  %93 = add nsw i32 %92, 1
  store i32 %93, i32* %3, align 4
  br label %15

94:                                               ; preds = %15
  %95 = load i32, i32* %7, align 4
  %96 = load i32, i32* %5, align 4
  %97 = sub nsw i32 %95, %96
  %98 = sub nsw i32 %97, 1
  %99 = load i32, i32* %8, align 4
  %100 = load i32, i32* %6, align 4
  %101 = sub nsw i32 %99, %100
  %102 = sub nsw i32 %101, 1
  %103 = mul nsw i32 %98, %102
  %104 = call i32 (i8*, ...) @printf(i8* getelementptr inbounds ([3 x i8], [3 x i8]* @.str, i64 0, i64 0), i32 %103)
  ret void
}

declare dso_local i32 @__isoc99_scanf(i8*, ...) #1

; Function Attrs: nounwind
declare dso_local noalias i8* @malloc(i64) #2

declare dso_local i32 @printf(i8*, ...) #1


!llvm.module.flags = !{!0}
!llvm.ident = !{!1}

!0 = !{i32 1, !"wchar_size", i32 4}
!1 = !{!"clang version 10.0.0-4ubuntu1 "}
